target datalayout = "e-m:e-p270:32:32-p271:32:32-p272:64:64-i64:64-i128:128-f80:128-n8:16:32:64-S128"
target triple = "x86_64-pc-linux-gnu"

%"class.igl::opengl::ViewerCore" = type { i32, [12 x i8], %"class.Eigen::Matrix.3", %"class.Eigen::Matrix.12", i8, i8, i32, i32, i32, i32, i32, float, i32, [4 x i8], %"class.Eigen::Quaternion", float, float, i8, %"class.Eigen::Matrix.12", %"class.Eigen::Matrix.12", %"class.Eigen::Matrix.12", %"class.Eigen::Matrix.12", %"class.Eigen::Matrix.12", float, float, float, i8, i8, double, float, [12 x i8], %"class.Eigen::Matrix.3", %"class.Eigen::Matrix.22", %"class.Eigen::Matrix.22", %"class.Eigen::Matrix.22", %"class.Eigen::Matrix.22", %"class.Eigen::Matrix.22" }
%"class.Eigen::Quaternion" = type { %"class.Eigen::Matrix.3" }
%"class.Eigen::Matrix.12" = type { %"class.Eigen::PlainObjectBase.13" }
%"class.Eigen::PlainObjectBase.13" = type { %"class.Eigen::DenseStorage.20" }
%"class.Eigen::DenseStorage.20" = type { %"struct.Eigen::internal::plain_array.21" }
%"struct.Eigen::internal::plain_array.21" = type { [3 x float] }
%"class.Eigen::Matrix.3" = type { %"class.Eigen::PlainObjectBase.4" }
%"class.Eigen::PlainObjectBase.4" = type { %"class.Eigen::DenseStorage.11" }
%"class.Eigen::DenseStorage.11" = type { %"struct.Eigen::internal::plain_array" }
%"struct.Eigen::internal::plain_array" = type { [4 x float] }
%"class.Eigen::Matrix.22" = type { %"class.Eigen::PlainObjectBase.23" }
%"class.Eigen::PlainObjectBase.23" = type { %"class.Eigen::DenseStorage.30" }
%"class.Eigen::DenseStorage.30" = type { %"struct.Eigen::internal::plain_array.31" }
%"struct.Eigen::internal::plain_array.31" = type { [16 x float] }
%"class.Eigen::PlainObjectBase" = type { %"class.Eigen::DenseStorage" }
%"class.Eigen::DenseStorage" = type { ptr, i64, i64 }
%"class.Eigen::Matrix" = type { %"class.Eigen::PlainObjectBase" }
%"class.Eigen::PlainObjectBase.33" = type { %"class.Eigen::DenseStorage.40" }
%"class.Eigen::DenseStorage.40" = type { ptr, i64, i64 }
%"class.igl::opengl::ViewerData" = type { %"class.Eigen::Matrix", %"class.Eigen::Matrix.32", %"class.Eigen::Matrix", %"class.Eigen::Matrix", %"class.Eigen::Matrix", %"class.Eigen::Matrix", %"class.Eigen::Matrix", %"class.Eigen::Matrix", %"class.Eigen::Matrix", %"class.Eigen::Matrix", %"class.Eigen::Matrix", %"class.Eigen::Matrix.32", %"class.Eigen::Matrix.111", %"class.Eigen::Matrix.111", %"class.Eigen::Matrix.111", %"class.Eigen::Matrix.111", %"class.Eigen::Matrix", %"class.Eigen::Matrix", %"class.Eigen::Matrix", %"class.Eigen::Matrix", %"class.Eigen::Matrix", %"class.std::vector", %"class.std::vector", %"class.std::vector", i32, i8, i8, i8, i32, i32, i32, i32, i32, i32, i32, i32, i32, i32, float, float, float, %"class.Eigen::Matrix.120", %"class.Eigen::Matrix.120", float, i32, [4 x i8], %"class.igl::opengl::MeshGL" }
%"class.Eigen::Matrix.32" = type { %"class.Eigen::PlainObjectBase.33" }
%"class.Eigen::Matrix.111" = type { %"class.Eigen::PlainObjectBase.112" }
%"class.Eigen::PlainObjectBase.112" = type { %"class.Eigen::DenseStorage.119" }
%"class.Eigen::DenseStorage.119" = type { ptr, i64, i64 }
%"class.std::vector" = type { %"struct.std::_Vector_base" }
%"struct.std::_Vector_base" = type { %"struct.std::_Vector_base<std::__cxx11::basic_string<char>, std::allocator<std::__cxx11::basic_string<char>>>::_Vector_impl" }
%"struct.std::_Vector_base<std::__cxx11::basic_string<char>, std::allocator<std::__cxx11::basic_string<char>>>::_Vector_impl" = type { %"struct.std::_Vector_base<std::__cxx11::basic_string<char>, std::allocator<std::__cxx11::basic_string<char>>>::_Vector_impl_data" }
%"struct.std::_Vector_base<std::__cxx11::basic_string<char>, std::allocator<std::__cxx11::basic_string<char>>>::_Vector_impl_data" = type { ptr, ptr, ptr }
%"class.Eigen::Matrix.120" = type { %"class.Eigen::PlainObjectBase.121" }
%"class.Eigen::PlainObjectBase.121" = type { %"class.Eigen::DenseStorage.128" }
%"class.Eigen::DenseStorage.128" = type { %"struct.Eigen::internal::plain_array.129" }
%"struct.Eigen::internal::plain_array.129" = type { [4 x float] }
%"class.igl::opengl::MeshGL" = type <{ i8, [3 x i8], i32, i32, i32, i32, i32, i32, i32, i32, i32, i32, i32, i32, i32, i32, i32, i32, i32, i32, i32, i32, i32, %"class.Eigen::Matrix.130", %"class.Eigen::Matrix.130", %"class.Eigen::Matrix.130", %"class.Eigen::Matrix.130", %"class.Eigen::Matrix.130", %"class.Eigen::Matrix.130", %"class.Eigen::Matrix.130", %"class.Eigen::Matrix.130", %"class.Eigen::Matrix.130", %"class.Eigen::Matrix.130", %"struct.igl::opengl::MeshGL::TextGL", %"struct.igl::opengl::MeshGL::TextGL", %"struct.igl::opengl::MeshGL::TextGL", i32, i32, i32, i32, i32, [4 x i8], %"class.Eigen::Matrix.148", %"class.Eigen::Matrix.139", %"class.Eigen::Matrix.139", %"class.Eigen::Matrix.139", i32, [4 x i8] }>
%"class.Eigen::Matrix.130" = type { %"class.Eigen::PlainObjectBase.131" }
%"class.Eigen::PlainObjectBase.131" = type { %"class.Eigen::DenseStorage.138" }
%"class.Eigen::DenseStorage.138" = type { ptr, i64, i64 }
%"struct.igl::opengl::MeshGL::TextGL" = type { i32, i32, i32, i32, i32, i32, %"class.Eigen::Matrix.130", %"class.Eigen::Matrix.130", %"class.Eigen::Matrix.130", %"class.Eigen::Matrix.139" }
%"class.Eigen::Matrix.148" = type { %"class.Eigen::PlainObjectBase.149" }
%"class.Eigen::PlainObjectBase.149" = type { %"class.Eigen::DenseStorage.156" }
%"class.Eigen::DenseStorage.156" = type { ptr, i64 }
%"class.Eigen::Matrix.139" = type { %"class.Eigen::PlainObjectBase.140" }
%"class.Eigen::PlainObjectBase.140" = type { %"class.Eigen::DenseStorage.147" }
%"class.Eigen::DenseStorage.147" = type { ptr, i64, i64 }

@glad_glGetUniformLocation = external global ptr, align 8
@.str = private unnamed_addr constant [5 x i8] c"view\00", align 1
@.str.3 = private unnamed_addr constant [5 x i8] c"proj\00", align 1
@glad_glUniformMatrix4fv = external global ptr, align 8
@glad_glUniform1i = external global ptr, align 8
@.str.17 = private unnamed_addr constant [12 x i8] c"shadow_pass\00", align 1

; Function Attrs: mustprogress nounwind uwtable
define linkonce_odr dso_local noundef ptr @_ZN5Eigen12DenseStorageIfLi16ELi4ELi4ELi0EE4dataEv(ptr noundef nonnull align 16 dereferenceable(64) %0) #1 comdat align 2 {
  %2 = alloca ptr, align 8
  store ptr %0, ptr %2, align 8, !tbaa !814
  %3 = load ptr, ptr %2, align 8
  %4 = getelementptr inbounds nuw %"class.Eigen::DenseStorage.30", ptr %3, i32 0, i32 0
  %5 = getelementptr inbounds nuw %"struct.Eigen::internal::plain_array.31", ptr %4, i32 0, i32 0
  %6 = getelementptr inbounds [16 x float], ptr %5, i64 0, i64 0
  ret ptr %6
}

; Function Attrs: inlinehint mustprogress nounwind uwtable
define linkonce_odr dso_local noundef ptr @_ZN5Eigen15PlainObjectBaseINS_6MatrixIfLi4ELi4ELi0ELi4ELi4EEEE4dataEv(ptr noundef nonnull align 16 dereferenceable(64) %0) #4 comdat align 2 {
  %2 = alloca ptr, align 8
  store ptr %0, ptr %2, align 8, !tbaa !187
  %3 = load ptr, ptr %2, align 8
  %4 = getelementptr inbounds nuw %"class.Eigen::PlainObjectBase.23", ptr %3, i32 0, i32 0
  %5 = call noundef ptr @_ZN5Eigen12DenseStorageIfLi16ELi4ELi4ELi0EE4dataEv(ptr noundef nonnull align 16 dereferenceable(64) %4)
  ret ptr %5
}

; Function Attrs: mustprogress uwtable
define dso_local void @_ZN3igl6opengl10ViewerCore16draw_shadow_passERNS0_10ViewerDataEb(ptr noundef nonnull align 16 dereferenceable(544) %0, ptr noundef nonnull align 8 dereferenceable(1488) %1, i1 noundef zeroext %2) #3 align 2 {
  %4 = alloca ptr, align 8
  %5 = alloca ptr, align 8
  %6 = alloca i8, align 1
  %7 = alloca i32, align 4
  %8 = alloca i32, align 4
  store ptr %0, ptr %4, align 8, !tbaa !15
  store ptr %1, ptr %5, align 8, !tbaa !92
  %9 = zext i1 %2 to i8
  store i8 %9, ptr %6, align 1, !tbaa !94
  %10 = load ptr, ptr %4, align 8
  %11 = load ptr, ptr %5, align 8, !tbaa !92
  %12 = getelementptr inbounds nuw %"class.igl::opengl::ViewerData", ptr %11, i32 0, i32 24
  %13 = load i32, ptr %12, align 8, !tbaa !98
  %14 = icmp ne i32 %13, 0
  br i1 %14, label %15, label %26

15:                                               ; preds = %3
  %16 = load ptr, ptr %5, align 8, !tbaa !92
  %17 = load ptr, ptr %5, align 8, !tbaa !92
  %18 = load ptr, ptr %5, align 8, !tbaa !92
  %19 = getelementptr inbounds nuw %"class.igl::opengl::ViewerData", ptr %18, i32 0, i32 27
  %20 = load i8, ptr %19, align 2, !tbaa !131, !range !96, !noundef !97
  %21 = trunc i8 %20 to i1
  %22 = load ptr, ptr %5, align 8, !tbaa !92
  %23 = getelementptr inbounds nuw %"class.igl::opengl::ViewerData", ptr %22, i32 0, i32 46
  call void @_ZN3igl6opengl10ViewerData8updateGLERKS1_bRNS0_6MeshGLE(ptr noundef nonnull align 8 dereferenceable(1488) %16, ptr noundef nonnull align 8 dereferenceable(1488) %17, i1 noundef zeroext %21, ptr noundef nonnull align 8 dereferenceable(804) %23)
  %24 = load ptr, ptr %5, align 8, !tbaa !92
  %25 = getelementptr inbounds nuw %"class.igl::opengl::ViewerData", ptr %24, i32 0, i32 24
  store i32 0, ptr %25, align 8, !tbaa !98
  br label %26

26:                                               ; preds = %15, %3
  %27 = load ptr, ptr %5, align 8, !tbaa !92
  %28 = getelementptr inbounds nuw %"class.igl::opengl::ViewerData", ptr %27, i32 0, i32 46
  call void @_ZN3igl6opengl6MeshGL9bind_meshEv(ptr noundef nonnull align 8 dereferenceable(804) %28)
  call void @llvm.lifetime.start.p0(i64 4, ptr %7) #20
  %29 = load ptr, ptr @glad_glGetUniformLocation, align 8, !tbaa !89
  %30 = load ptr, ptr %5, align 8, !tbaa !92
  %31 = getelementptr inbounds nuw %"class.igl::opengl::ViewerData", ptr %30, i32 0, i32 46
  %32 = getelementptr inbounds nuw %"class.igl::opengl::MeshGL", ptr %31, i32 0, i32 5
  %33 = load i32, ptr %32, align 8, !tbaa !139
  %34 = call i32 %29(i32 noundef %33, ptr noundef @.str)
  store i32 %34, ptr %7, align 4, !tbaa !136
  call void @llvm.lifetime.start.p0(i64 4, ptr %8) #20
  %35 = load ptr, ptr @glad_glGetUniformLocation, align 8, !tbaa !89
  %36 = load ptr, ptr %5, align 8, !tbaa !92
  %37 = getelementptr inbounds nuw %"class.igl::opengl::ViewerData", ptr %36, i32 0, i32 46
  %38 = getelementptr inbounds nuw %"class.igl::opengl::MeshGL", ptr %37, i32 0, i32 5
  %39 = load i32, ptr %38, align 8, !tbaa !139
  %40 = call i32 %35(i32 noundef %39, ptr noundef @.str.3)
  store i32 %40, ptr %8, align 4, !tbaa !136
  %41 = load ptr, ptr @glad_glUniformMatrix4fv, align 8, !tbaa !89
  %42 = load i32, ptr %7, align 4, !tbaa !136
  %43 = getelementptr inbounds nuw %"class.igl::opengl::ViewerCore", ptr %10, i32 0, i32 35
  %44 = call noundef ptr @_ZN5Eigen15PlainObjectBaseINS_6MatrixIfLi4ELi4ELi0ELi4ELi4EEEE4dataEv(ptr noundef nonnull align 16 dereferenceable(64) %43)
  call void %41(i32 noundef %42, i32 noundef 1, i8 noundef zeroext 0, ptr noundef %44)
  %45 = load ptr, ptr @glad_glUniformMatrix4fv, align 8, !tbaa !89
  %46 = load i32, ptr %8, align 4, !tbaa !136
  %47 = getelementptr inbounds nuw %"class.igl::opengl::ViewerCore", ptr %10, i32 0, i32 36
  %48 = call noundef ptr @_ZN5Eigen15PlainObjectBaseINS_6MatrixIfLi4ELi4ELi0ELi4ELi4EEEE4dataEv(ptr noundef nonnull align 16 dereferenceable(64) %47)
  call void %45(i32 noundef %46, i32 noundef 1, i8 noundef zeroext 0, ptr noundef %48)
  %49 = load ptr, ptr @glad_glUniform1i, align 8, !tbaa !89
  %50 = load ptr, ptr @glad_glGetUniformLocation, align 8, !tbaa !89
  %51 = load ptr, ptr %5, align 8, !tbaa !92
  %52 = getelementptr inbounds nuw %"class.igl::opengl::ViewerData", ptr %51, i32 0, i32 46
  %53 = getelementptr inbounds nuw %"class.igl::opengl::MeshGL", ptr %52, i32 0, i32 5
  %54 = load i32, ptr %53, align 8, !tbaa !139
  %55 = call i32 %50(i32 noundef %54, ptr noundef @.str.17)
  call void %49(i32 noundef %55, i32 noundef 1)
  %56 = load ptr, ptr %5, align 8, !tbaa !92
  %57 = getelementptr inbounds nuw %"class.igl::opengl::ViewerData", ptr %56, i32 0, i32 46
  call void @_ZN3igl6opengl6MeshGL9draw_meshEb(ptr noundef nonnull align 8 dereferenceable(804) %57, i1 noundef zeroext true)
  %58 = load ptr, ptr @glad_glUniform1i, align 8, !tbaa !89
  %59 = load ptr, ptr @glad_glGetUniformLocation, align 8, !tbaa !89
  %60 = load ptr, ptr %5, align 8, !tbaa !92
  %61 = getelementptr inbounds nuw %"class.igl::opengl::ViewerData", ptr %60, i32 0, i32 46
  %62 = getelementptr inbounds nuw %"class.igl::opengl::MeshGL", ptr %61, i32 0, i32 5
  %63 = load i32, ptr %62, align 8, !tbaa !139
  %64 = call i32 %59(i32 noundef %63, ptr noundef @.str.17)
  call void %58(i32 noundef %64, i32 noundef 0)
  call void @llvm.lifetime.end.p0(i64 4, ptr %8) #20
  call void @llvm.lifetime.end.p0(i64 4, ptr %7) #20
  ret void
}