; Function Attrs: mustprogress uwtable
define dso_local void @_ZN3igl6opengl10ViewerCore16draw_shadow_passERNS0_10ViewerDataEb(ptr noundef nonnull align 16 dereferenceable(544) %0, ptr noundef nonnull align 8 dereferenceable(1488) %1, i1 noundef zeroext %2) local_unnamed_addr #3 align 2 {
  %4 = getelementptr inbounds nuw i8, ptr %1, i64 576
  %5 = load i32, ptr %4, align 8, !tbaa !62
  %.not = icmp eq i32 %5, 0
  br i1 %.not, label %11, label %6

6:                                                ; preds = %3
  %7 = getelementptr inbounds nuw i8, ptr %1, i64 582
  %8 = load i8, ptr %7, align 2, !tbaa !93, !range !60, !noundef !61
  %9 = trunc nuw i8 %8 to i1
  %10 = getelementptr inbounds nuw i8, ptr %1, i64 680
  tail call void @_ZN3igl6opengl10ViewerData8updateGLERKS1_bRNS0_6MeshGLE(ptr noundef nonnull align 8 dereferenceable(1488) %1, ptr noundef nonnull align 8 dereferenceable(1488) %1, i1 noundef zeroext %9, ptr noundef nonnull align 8 dereferenceable(804) %10)
  store i32 0, ptr %4, align 8, !tbaa !62
  br label %11

11:                                               ; preds = %6, %3
  %12 = getelementptr inbounds nuw i8, ptr %1, i64 680
  tail call void @_ZN3igl6opengl6MeshGL9bind_meshEv(ptr noundef nonnull align 8 dereferenceable(804) %12)
  %13 = load ptr, ptr @glad_glGetUniformLocation, align 8, !tbaa !58
  %14 = getelementptr inbounds nuw i8, ptr %1, i64 696
  %15 = load i32, ptr %14, align 8, !tbaa !111
  %16 = tail call i32 %13(i32 noundef %15, ptr noundef nonnull @.str)
  %17 = load ptr, ptr @glad_glGetUniformLocation, align 8, !tbaa !58
  %18 = load i32, ptr %14, align 8, !tbaa !111
  %19 = tail call i32 %17(i32 noundef %18, ptr noundef nonnull @.str.3)
  %20 = load ptr, ptr @glad_glUniformMatrix4fv, align 8, !tbaa !58
  %21 = getelementptr inbounds nuw i8, ptr %0, i64 416
  tail call void %20(i32 noundef %16, i32 noundef 1, i8 noundef zeroext 0, ptr noundef nonnull %21)
  %22 = load ptr, ptr @glad_glUniformMatrix4fv, align 8, !tbaa !58
  %23 = getelementptr inbounds nuw i8, ptr %0, i64 480
  tail call void %22(i32 noundef %19, i32 noundef 1, i8 noundef zeroext 0, ptr noundef nonnull %23)
  %24 = load ptr, ptr @glad_glUniform1i, align 8, !tbaa !58
  %25 = load ptr, ptr @glad_glGetUniformLocation, align 8, !tbaa !58
  %26 = load i32, ptr %14, align 8, !tbaa !111
  %27 = tail call i32 %25(i32 noundef %26, ptr noundef nonnull @.str.17)
  tail call void %24(i32 noundef %27, i32 noundef 1)
  tail call void @_ZN3igl6opengl6MeshGL9draw_meshEb(ptr noundef nonnull align 8 dereferenceable(804) %12, i1 noundef zeroext true)
  %28 = load ptr, ptr @glad_glUniform1i, align 8, !tbaa !58
  %29 = load ptr, ptr @glad_glGetUniformLocation, align 8, !tbaa !58
  %30 = load i32, ptr %14, align 8, !tbaa !111
  %31 = tail call i32 %29(i32 noundef %30, ptr noundef nonnull @.str.17)
  tail call void %28(i32 noundef %31, i32 noundef 0)
  ret void
}